target datalayout = "e-m:e-p270:32:32-p271:32:32-p272:64:64-i64:64-i128:128-f80:128-n8:16:32:64-S128"
target triple = "x86_64-pc-linux-gnu"

%struct.lua_State = type { i8, i8, i8, i8, i8, i8, i8, ptr, ptr, ptr, ptr, ptr, ptr, ptr, ptr, i32, i32, i16, i16, i32, ptr, ptr, ptr, ptr, ptr }
%struct.global_State = type { %struct.stringtable, ptr, ptr, i8, i8, ptr, ptr, ptr, i64, i64, i32, i32, i32, [40 x ptr], [40 x ptr], ptr, ptr, ptr, [256 x i64], ptr, %struct.UpVal, [11 x ptr], [11 x ptr], [21 x ptr], %struct.lua_TValue, %struct.lua_TValue, i32, ptr, i64, [4 x i64], %struct.lua_Callbacks, %struct.lua_ExecutionCallbacks, [128 x ptr], [128 x ptr], [128 x ptr], %struct.GCStats }
%struct.stringtable = type { ptr, i32, i32 }
%struct.UpVal = type { i8, i8, i8, i8, ptr, %union.anon }
%union.anon = type { %struct.anon }
%struct.anon = type { ptr, ptr, ptr }
%struct.lua_TValue = type { %union.Value, [1 x i32], i32 }
%union.Value = type { ptr }
%struct.lua_Callbacks = type { ptr, ptr, ptr, ptr, ptr, ptr, ptr, ptr, ptr }
%struct.lua_ExecutionCallbacks = type { ptr, ptr, ptr, ptr, ptr, ptr, ptr }
%struct.GCStats = type { [32 x i32], i32, i32, i64, i64, i64, double, double, double }
%struct.TString = type { i8, i8, i8, i16, ptr, i32, i32, [1 x i8] }
%struct.GCheader = type { i8, i8, i8 }

; Function Attrs: mustprogress nounwind uwtable
define hidden noundef i32 @_Z9luaS_hashPKcm(ptr noundef %0, i64 noundef %1) #0 {
  %3 = alloca ptr, align 8
  %4 = alloca i64, align 8
  %5 = alloca i32, align 4
  %6 = alloca i32, align 4
  %7 = alloca i32, align 4
  %8 = alloca [3 x i32], align 4
  %9 = alloca i64, align 8
  store ptr %0, ptr %3, align 8
  store i64 %1, ptr %4, align 8
  store i32 0, ptr %5, align 4
  store i32 0, ptr %6, align 4
  %10 = load i64, ptr %4, align 8
  %11 = trunc i64 %10 to i32
  store i32 %11, ptr %7, align 4
  br label %12

12:                                               ; preds = %15, %2
  %13 = load i64, ptr %4, align 8
  %14 = icmp uge i64 %13, 32
  br i1 %14, label %15, label %64

15:                                               ; preds = %12
  %16 = getelementptr inbounds [3 x i32], ptr %8, i64 0, i64 0
  %17 = load ptr, ptr %3, align 8
  call void @llvm.memcpy.p0.p0.i64(ptr align 4 %16, ptr align 1 %17, i64 12, i1 false)
  %18 = getelementptr inbounds [3 x i32], ptr %8, i64 0, i64 0
  %19 = load i32, ptr %18, align 4
  %20 = load i32, ptr %5, align 4
  %21 = add i32 %20, %19
  store i32 %21, ptr %5, align 4
  %22 = getelementptr inbounds [3 x i32], ptr %8, i64 0, i64 1
  %23 = load i32, ptr %22, align 4
  %24 = load i32, ptr %6, align 4
  %25 = add i32 %24, %23
  store i32 %25, ptr %6, align 4
  %26 = getelementptr inbounds [3 x i32], ptr %8, i64 0, i64 2
  %27 = load i32, ptr %26, align 4
  %28 = load i32, ptr %7, align 4
  %29 = add i32 %28, %27
  store i32 %29, ptr %7, align 4
  %30 = load i32, ptr %7, align 4
  %31 = load i32, ptr %5, align 4
  %32 = xor i32 %31, %30
  store i32 %32, ptr %5, align 4
  %33 = load i32, ptr %7, align 4
  %34 = lshr i32 %33, 14
  %35 = load i32, ptr %7, align 4
  %36 = shl i32 %35, 18
  %37 = or i32 %34, %36
  %38 = load i32, ptr %5, align 4
  %39 = sub i32 %38, %37
  store i32 %39, ptr %5, align 4
  %40 = load i32, ptr %5, align 4
  %41 = load i32, ptr %6, align 4
  %42 = xor i32 %41, %40
  store i32 %42, ptr %6, align 4
  %43 = load i32, ptr %5, align 4
  %44 = lshr i32 %43, 11
  %45 = load i32, ptr %5, align 4
  %46 = shl i32 %45, 21
  %47 = or i32 %44, %46
  %48 = load i32, ptr %6, align 4
  %49 = sub i32 %48, %47
  store i32 %49, ptr %6, align 4
  %50 = load i32, ptr %6, align 4
  %51 = load i32, ptr %7, align 4
  %52 = xor i32 %51, %50
  store i32 %52, ptr %7, align 4
  %53 = load i32, ptr %6, align 4
  %54 = lshr i32 %53, 25
  %55 = load i32, ptr %6, align 4
  %56 = shl i32 %55, 7
  %57 = or i32 %54, %56
  %58 = load i32, ptr %7, align 4
  %59 = sub i32 %58, %57
  store i32 %59, ptr %7, align 4
  %60 = load ptr, ptr %3, align 8
  %61 = getelementptr inbounds i8, ptr %60, i64 12
  store ptr %61, ptr %3, align 8
  %62 = load i64, ptr %4, align 8
  %63 = sub i64 %62, 12
  store i64 %63, ptr %4, align 8
  br label %12, !llvm.loop !5

64:                                               ; preds = %12
  %65 = load i64, ptr %4, align 8
  store i64 %65, ptr %9, align 8
  br label %66

66:                                               ; preds = %84, %64
  %67 = load i64, ptr %9, align 8
  %68 = icmp ugt i64 %67, 0
  br i1 %68, label %69, label %87

69:                                               ; preds = %66
  %70 = load i32, ptr %7, align 4
  %71 = shl i32 %70, 5
  %72 = load i32, ptr %7, align 4
  %73 = lshr i32 %72, 2
  %74 = add i32 %71, %73
  %75 = load ptr, ptr %3, align 8
  %76 = load i64, ptr %9, align 8
  %77 = sub i64 %76, 1
  %78 = getelementptr inbounds i8, ptr %75, i64 %77
  %79 = load i8, ptr %78, align 1
  %80 = zext i8 %79 to i32
  %81 = add i32 %74, %80
  %82 = load i32, ptr %7, align 4
  %83 = xor i32 %82, %81
  store i32 %83, ptr %7, align 4
  br label %84

84:                                               ; preds = %69
  %85 = load i64, ptr %9, align 8
  %86 = add i64 %85, -1
  store i64 %86, ptr %9, align 8
  br label %66, !llvm.loop !7

87:                                               ; preds = %66
  %88 = load i32, ptr %7, align 4
  ret i32 %88
}

; Function Attrs: mustprogress uwtable
define hidden noundef ptr @_Z14luaS_buffinishP9lua_StateP7TString(ptr noundef %0, ptr noundef %1) #2 {
  %3 = alloca ptr, align 8
  %4 = alloca ptr, align 8
  %5 = alloca ptr, align 8
  %6 = alloca i32, align 4
  %7 = alloca ptr, align 8
  %8 = alloca i32, align 4
  %9 = alloca ptr, align 8
  store ptr %0, ptr %4, align 8
  store ptr %1, ptr %5, align 8
  %10 = load ptr, ptr %5, align 8
  %11 = getelementptr inbounds %struct.TString, ptr %10, i32 0, i32 7
  %12 = getelementptr inbounds [1 x i8], ptr %11, i64 0, i64 0
  %13 = load ptr, ptr %5, align 8
  %14 = getelementptr inbounds %struct.TString, ptr %13, i32 0, i32 6
  %15 = load i32, ptr %14, align 4
  %16 = zext i32 %15 to i64
  %17 = call noundef i32 @_Z9luaS_hashPKcm(ptr noundef %12, i64 noundef %16)
  store i32 %17, ptr %6, align 4
  %18 = load ptr, ptr %4, align 8
  %19 = getelementptr inbounds %struct.lua_State, ptr %18, i32 0, i32 9
  %20 = load ptr, ptr %19, align 8
  %21 = getelementptr inbounds %struct.global_State, ptr %20, i32 0, i32 0
  store ptr %21, ptr %7, align 8
  %22 = load i32, ptr %6, align 4
  %23 = load ptr, ptr %7, align 8
  %24 = getelementptr inbounds %struct.stringtable, ptr %23, i32 0, i32 2
  %25 = load i32, ptr %24, align 4
  %26 = sub nsw i32 %25, 1
  %27 = and i32 %22, %26
  store i32 %27, ptr %8, align 4
  %28 = load ptr, ptr %7, align 8
  %29 = getelementptr inbounds %struct.stringtable, ptr %28, i32 0, i32 0
  %30 = load ptr, ptr %29, align 8
  %31 = load i32, ptr %8, align 4
  %32 = sext i32 %31 to i64
  %33 = getelementptr inbounds ptr, ptr %30, i64 %32
  %34 = load ptr, ptr %33, align 8
  store ptr %34, ptr %9, align 8
  br label %35

35:                                               ; preds = %86, %2
  %36 = load ptr, ptr %9, align 8
  %37 = icmp ne ptr %36, null
  br i1 %37, label %38, label %90

38:                                               ; preds = %35
  %39 = load ptr, ptr %9, align 8
  %40 = getelementptr inbounds %struct.TString, ptr %39, i32 0, i32 6
  %41 = load i32, ptr %40, align 4
  %42 = load ptr, ptr %5, align 8
  %43 = getelementptr inbounds %struct.TString, ptr %42, i32 0, i32 6
  %44 = load i32, ptr %43, align 4
  %45 = icmp eq i32 %41, %44
  br i1 %45, label %46, label %85

46:                                               ; preds = %38
  %47 = load ptr, ptr %9, align 8
  %48 = getelementptr inbounds %struct.TString, ptr %47, i32 0, i32 7
  %49 = getelementptr inbounds [1 x i8], ptr %48, i64 0, i64 0
  %50 = load ptr, ptr %5, align 8
  %51 = getelementptr inbounds %struct.TString, ptr %50, i32 0, i32 7
  %52 = getelementptr inbounds [1 x i8], ptr %51, i64 0, i64 0
  %53 = load ptr, ptr %5, align 8
  %54 = getelementptr inbounds %struct.TString, ptr %53, i32 0, i32 6
  %55 = load i32, ptr %54, align 4
  %56 = zext i32 %55 to i64
  %57 = call i32 @memcmp(ptr noundef %49, ptr noundef %52, i64 noundef %56) #7
  %58 = icmp eq i32 %57, 0
  br i1 %58, label %59, label %85

59:                                               ; preds = %46
  %60 = load ptr, ptr %9, align 8
  %61 = getelementptr inbounds %struct.TString, ptr %60, i64 0
  %62 = getelementptr inbounds %struct.GCheader, ptr %61, i32 0, i32 1
  %63 = load i8, ptr %62, align 1
  %64 = zext i8 %63 to i32
  %65 = and i32 %64, 11
  %66 = load ptr, ptr %4, align 8
  %67 = getelementptr inbounds %struct.lua_State, ptr %66, i32 0, i32 9
  %68 = load ptr, ptr %67, align 8
  %69 = getelementptr inbounds %struct.global_State, ptr %68, i32 0, i32 3
  %70 = load i8, ptr %69, align 8
  %71 = zext i8 %70 to i32
  %72 = xor i32 %71, 3
  %73 = and i32 %72, 3
  %74 = icmp eq i32 %65, %73
  br i1 %74, label %75, label %83

75:                                               ; preds = %59
  %76 = load ptr, ptr %9, align 8
  %77 = getelementptr inbounds %struct.TString, ptr %76, i64 0
  %78 = getelementptr inbounds %struct.GCheader, ptr %77, i32 0, i32 1
  %79 = load i8, ptr %78, align 1
  %80 = zext i8 %79 to i32
  %81 = xor i32 %80, 3
  %82 = trunc i32 %81 to i8
  store i8 %82, ptr %78, align 1
  br label %83

83:                                               ; preds = %75, %59
  %84 = load ptr, ptr %9, align 8
  store ptr %84, ptr %3, align 8
  br label %143

85:                                               ; preds = %46, %38
  br label %86

86:                                               ; preds = %85
  %87 = load ptr, ptr %9, align 8
  %88 = getelementptr inbounds %struct.TString, ptr %87, i32 0, i32 4
  %89 = load ptr, ptr %88, align 8
  store ptr %89, ptr %9, align 8
  br label %35, !llvm.loop !11

90:                                               ; preds = %35
  %91 = load i32, ptr %6, align 4
  %92 = load ptr, ptr %5, align 8
  %93 = getelementptr inbounds %struct.TString, ptr %92, i32 0, i32 5
  store i32 %91, ptr %93, align 8
  %94 = load ptr, ptr %5, align 8
  %95 = getelementptr inbounds %struct.TString, ptr %94, i32 0, i32 7
  %96 = load ptr, ptr %5, align 8
  %97 = getelementptr inbounds %struct.TString, ptr %96, i32 0, i32 6
  %98 = load i32, ptr %97, align 4
  %99 = zext i32 %98 to i64
  %100 = getelementptr inbounds [1 x i8], ptr %95, i64 0, i64 %99
  store i8 0, ptr %100, align 1
  %101 = load ptr, ptr %5, align 8
  %102 = getelementptr inbounds %struct.TString, ptr %101, i32 0, i32 3
  store i16 -32768, ptr %102, align 4
  %103 = load ptr, ptr %7, align 8
  %104 = getelementptr inbounds %struct.stringtable, ptr %103, i32 0, i32 0
  %105 = load ptr, ptr %104, align 8
  %106 = load i32, ptr %8, align 4
  %107 = sext i32 %106 to i64
  %108 = getelementptr inbounds ptr, ptr %105, i64 %107
  %109 = load ptr, ptr %108, align 8
  %110 = load ptr, ptr %5, align 8
  %111 = getelementptr inbounds %struct.TString, ptr %110, i32 0, i32 4
  store ptr %109, ptr %111, align 8
  %112 = load ptr, ptr %5, align 8
  %113 = load ptr, ptr %7, align 8
  %114 = getelementptr inbounds %struct.stringtable, ptr %113, i32 0, i32 0
  %115 = load ptr, ptr %114, align 8
  %116 = load i32, ptr %8, align 4
  %117 = sext i32 %116 to i64
  %118 = getelementptr inbounds ptr, ptr %115, i64 %117
  store ptr %112, ptr %118, align 8
  %119 = load ptr, ptr %7, align 8
  %120 = getelementptr inbounds %struct.stringtable, ptr %119, i32 0, i32 1
  %121 = load i32, ptr %120, align 8
  %122 = add i32 %121, 1
  store i32 %122, ptr %120, align 8
  %123 = load ptr, ptr %7, align 8
  %124 = getelementptr inbounds %struct.stringtable, ptr %123, i32 0, i32 1
  %125 = load i32, ptr %124, align 8
  %126 = load ptr, ptr %7, align 8
  %127 = getelementptr inbounds %struct.stringtable, ptr %126, i32 0, i32 2
  %128 = load i32, ptr %127, align 4
  %129 = icmp ugt i32 %125, %128
  br i1 %129, label %130, label %141

130:                                              ; preds = %90
  %131 = load ptr, ptr %7, align 8
  %132 = getelementptr inbounds %struct.stringtable, ptr %131, i32 0, i32 2
  %133 = load i32, ptr %132, align 4
  %134 = icmp sle i32 %133, 1073741823
  br i1 %134, label %135, label %141

135:                                              ; preds = %130
  %136 = load ptr, ptr %4, align 8
  %137 = load ptr, ptr %7, align 8
  %138 = getelementptr inbounds %struct.stringtable, ptr %137, i32 0, i32 2
  %139 = load i32, ptr %138, align 4
  %140 = mul nsw i32 %139, 2
  call void @_Z11luaS_resizeP9lua_Statei(ptr noundef %136, i32 noundef %140)
  br label %141

141:                                              ; preds = %135, %130, %90
  %142 = load ptr, ptr %5, align 8
  store ptr %142, ptr %3, align 8
  br label %143

143:                                              ; preds = %141, %83
  %144 = load ptr, ptr %3, align 8
  ret ptr %144
}