; Function Attrs: mustprogress uwtable
define hidden noundef ptr @_Z14luaS_buffinishP9lua_StateP7TString(ptr noundef %0, ptr noundef %1) local_unnamed_addr #2 {
  %3 = getelementptr inbounds i8, ptr %1, i64 24
  %4 = getelementptr inbounds i8, ptr %1, i64 20
  %5 = load i32, ptr %4, align 4
  %6 = zext i32 %5 to i64
  %7 = icmp ugt i32 %5, 31
  br i1 %7, label %.lr.ph.i, label %.preheader.i

.preheader.i:                                     ; preds = %2
  %.not43.i = icmp eq i32 %5, 0
  br i1 %.not43.i, label %_Z9luaS_hashPKcm.exit, label %.lr.ph46.preheader.i

.lr.ph46.preheader.i:                             ; preds = %.lr.ph.i, %.preheader.i
  %.031.lcssa57.i = phi ptr [ %3, %.preheader.i ], [ %20, %.lr.ph.i ]
  %.032.lcssa56.i = phi i64 [ %6, %.preheader.i ], [ %21, %.lr.ph.i ]
  %.034.lcssa55.i = phi i32 [ %5, %.preheader.i ], [ %19, %.lr.ph.i ]
  br label %.lr.ph46.i

.lr.ph.i:                                         ; preds = %2, %.lr.ph.i
  %.03140.i = phi ptr [ %20, %.lr.ph.i ], [ %3, %2 ]
  %.03239.i = phi i64 [ %21, %.lr.ph.i ], [ %6, %2 ]
  %.03338.i = phi i32 [ %13, %.lr.ph.i ], [ 0, %2 ]
  %.03437.i = phi i32 [ %19, %.lr.ph.i ], [ %5, %2 ]
  %.03536.i = phi i32 [ %16, %.lr.ph.i ], [ 0, %2 ]
  %.sroa.0.0.copyload.i = load i32, ptr %.03140.i, align 1
  %.sroa.2.0..sroa_idx.i = getelementptr inbounds i8, ptr %.03140.i, i64 4
  %.sroa.2.0.copyload.i = load i32, ptr %.sroa.2.0..sroa_idx.i, align 1
  %.sroa.3.0..sroa_idx.i = getelementptr inbounds i8, ptr %.03140.i, i64 8
  %.sroa.3.0.copyload.i = load i32, ptr %.sroa.3.0..sroa_idx.i, align 1
  %8 = add i32 %.sroa.0.0.copyload.i, %.03338.i
  %9 = add i32 %.sroa.2.0.copyload.i, %.03536.i
  %10 = add i32 %.sroa.3.0.copyload.i, %.03437.i
  %11 = xor i32 %10, %8
  %12 = tail call i32 @llvm.fshl.i32(i32 %10, i32 %10, i32 18)
  %13 = sub i32 %11, %12
  %14 = xor i32 %13, %9
  %15 = tail call i32 @llvm.fshl.i32(i32 %13, i32 %13, i32 21)
  %16 = sub i32 %14, %15
  %17 = xor i32 %16, %10
  %18 = tail call i32 @llvm.fshl.i32(i32 %16, i32 %16, i32 7)
  %19 = sub i32 %17, %18
  %20 = getelementptr inbounds i8, ptr %.03140.i, i64 12
  %21 = add i64 %.03239.i, -12
  %22 = icmp ugt i64 %21, 31
  br i1 %22, label %.lr.ph.i, label %.lr.ph46.preheader.i, !llvm.loop !5

.lr.ph46.i:                                       ; preds = %.lr.ph46.i, %.lr.ph46.preheader.i
  %.045.i = phi i64 [ %26, %.lr.ph46.i ], [ %.032.lcssa56.i, %.lr.ph46.preheader.i ]
  %.144.i = phi i32 [ %31, %.lr.ph46.i ], [ %.034.lcssa55.i, %.lr.ph46.preheader.i ]
  %23 = shl i32 %.144.i, 5
  %24 = lshr i32 %.144.i, 2
  %25 = add i32 %23, %24
  %26 = add nsw i64 %.045.i, -1
  %27 = getelementptr inbounds i8, ptr %.031.lcssa57.i, i64 %26
  %28 = load i8, ptr %27, align 1
  %29 = zext i8 %28 to i32
  %30 = add i32 %25, %29
  %31 = xor i32 %30, %.144.i
  %.not.i = icmp eq i64 %26, 0
  br i1 %.not.i, label %_Z9luaS_hashPKcm.exit, label %.lr.ph46.i, !llvm.loop !7

_Z9luaS_hashPKcm.exit:                            ; preds = %.lr.ph46.i, %.preheader.i
  %.1.lcssa.i = phi i32 [ 0, %.preheader.i ], [ %31, %.lr.ph46.i ]
  %32 = getelementptr inbounds i8, ptr %0, i64 24
  %33 = load ptr, ptr %32, align 8
  %34 = getelementptr inbounds i8, ptr %33, i64 12
  %35 = load i32, ptr %34, align 4
  %36 = add nsw i32 %35, -1
  %37 = and i32 %36, %.1.lcssa.i
  %38 = load ptr, ptr %33, align 8
  %39 = sext i32 %37 to i64
  %40 = getelementptr inbounds ptr, ptr %38, i64 %39
  %.043 = load ptr, ptr %40, align 8
  %.not44 = icmp eq ptr %.043, null
  br i1 %.not44, label %._crit_edge, label %.lr.ph

.lr.ph:                                           ; preds = %_Z9luaS_hashPKcm.exit, %58
  %.045 = phi ptr [ %.0, %58 ], [ %.043, %_Z9luaS_hashPKcm.exit ]
  %41 = getelementptr inbounds i8, ptr %.045, i64 20
  %42 = load i32, ptr %41, align 4
  %43 = icmp eq i32 %42, %5
  br i1 %43, label %44, label %58

44:                                               ; preds = %.lr.ph
  %45 = getelementptr inbounds i8, ptr %.045, i64 24
  %bcmp = tail call i32 @bcmp(ptr nonnull %45, ptr nonnull %3, i64 %6)
  %46 = icmp eq i32 %bcmp, 0
  br i1 %46, label %47, label %58

47:                                               ; preds = %44
  %48 = getelementptr inbounds i8, ptr %.045, i64 1
  %49 = load i8, ptr %48, align 1
  %50 = and i8 %49, 11
  %51 = getelementptr inbounds i8, ptr %33, i64 32
  %52 = load i8, ptr %51, align 8
  %53 = and i8 %52, 3
  %54 = xor i8 %53, %50
  %55 = icmp eq i8 %54, 3
  br i1 %55, label %56, label %77

56:                                               ; preds = %47
  %57 = xor i8 %49, 3
  store i8 %57, ptr %48, align 1
  br label %77

58:                                               ; preds = %.lr.ph, %44
  %59 = getelementptr inbounds i8, ptr %.045, i64 8
  %.0 = load ptr, ptr %59, align 8
  %.not = icmp eq ptr %.0, null
  br i1 %.not, label %._crit_edge, label %.lr.ph, !llvm.loop !10

._crit_edge:                                      ; preds = %58, %_Z9luaS_hashPKcm.exit
  %60 = getelementptr inbounds i8, ptr %1, i64 16
  store i32 %.1.lcssa.i, ptr %60, align 8
  %61 = getelementptr inbounds [1 x i8], ptr %3, i64 0, i64 %6
  store i8 0, ptr %61, align 1
  %62 = getelementptr inbounds i8, ptr %1, i64 4
  store i16 -32768, ptr %62, align 4
  %63 = load ptr, ptr %33, align 8
  %64 = getelementptr inbounds ptr, ptr %63, i64 %39
  %65 = load ptr, ptr %64, align 8
  %66 = getelementptr inbounds i8, ptr %1, i64 8
  store ptr %65, ptr %66, align 8
  %67 = load ptr, ptr %33, align 8
  %68 = getelementptr inbounds ptr, ptr %67, i64 %39
  store ptr %1, ptr %68, align 8
  %69 = getelementptr inbounds i8, ptr %33, i64 8
  %70 = load i32, ptr %69, align 8
  %71 = add i32 %70, 1
  store i32 %71, ptr %69, align 8
  %72 = load i32, ptr %34, align 4
  %73 = icmp ugt i32 %71, %72
  %74 = icmp slt i32 %72, 1073741824
  %or.cond = and i1 %73, %74
  br i1 %or.cond, label %75, label %77

75:                                               ; preds = %._crit_edge
  %76 = shl nsw i32 %72, 1
  tail call void @_Z11luaS_resizeP9lua_Statei(ptr noundef %0, i32 noundef %76)
  br label %77

77:                                               ; preds = %._crit_edge, %75, %47, %56
  %.036 = phi ptr [ %.045, %56 ], [ %.045, %47 ], [ %1, %75 ], [ %1, %._crit_edge ]
  ret ptr %.036
}